(lp0
(dp1
S'current'
p2
(lp3
Vhguo@anl.gov
p4
aVkaterina.vrotsou@liu.se
p5
aVleoli@adobe.com
p6
asS'desired'
p7
(lp8
S'katerina.vrotsou@liu.se'
p9
aS'ayanju04@gmail.com'
p10
aS'leoli@adobe.com'
p11
asS'mailing_list'
p12
S'ff@ieeevis.org'
p13
sa(dp14
g2
(lp15
Vingrid.hotz@liu.se
p16
aVkirby@cs.utah.edu
p17
aVxiaoru.yuan@pku.edu.cn
p18
asg7
(lp19
S'GHWeber@lbl.gov'
p20
aS'fuji@ics.keio.ac.jp'
p21
aS'Daniel.Weiskopf@visus.uni-stuttgart.de'
p22
asg12
S'scivis_papers@ieeevis.org'
p23
sa(dp24
g2
(lp25
Valex@sci.utah.edu
p26
aVlbornn@sfu.ca
p27
aVtorsten.moeller@univie.ac.at
p28
asg7
(lp29
S'torsten.moeller@univie.ac.at'
p30
asg12
S'vds@ieeevis.org'
p31
sa(dp32
g2
(lp33
Vbilal.alsallakh@us.bosch.com
p34
aVcscheid@cs.arizona.edu
p35
aVdorwarth@isg.cs.uni-magdeburg.de
p36
aVltharrison@wpi.edu
p37
aVmhaley@sfu.ca
p38
aVsarikaya@cs.wisc.edu
p39
asg7
(lp40
S'ltharrison@wpi.edu'
p41
aS'cscheid@email.arizona.edu'
p42
aS'dorwarth@isg.cs.uni-magdeburg.de'
p43
aS'Bilal.Alsallakh@us.bosch.com'
p44
aS'alper.sarikaya@microsoft.com'
p45
asg12
S'web@ieeevis.org'
p46
sa(dp47
g2
(lp48
Vsjengle@cs.usfca.edu
p49
asg7
(lp50
S'diane.staheli@ll.mit.edu'
p51
asg12
S'vizsec@ieeevis.org'
p52
sa(dp53
g2
(lp54
Vchaoli.wang@nd.edu
p55
aVchristopher.collins@uoit.ca
p56
aVSteffen.Koch@vis.uni-stuttgart.de
p57
asg7
(lp58
S'Steffen.Koch@vis.uni-stuttgart.de'
p59
aS'Christopher.Collins@uoit.ca'
p60
aS'chaoli.wang@nd.edu'
p61
asg12
S'tutorials@ieeevis.org'
p62
sa(dp63
g2
(lp64
Vdaniela.oelke@siemens.com
p65
aVhentschel@vr.rwth-aachen.de
p66
aVjustintalbot@gmail.com
p67
asg7
(lp68
S'daniela.oelke@siemens.com'
p69
aS'mabrehme@microsoft.com'
p70
aS'hentschel@vr.rwth-aachen.de'
p71
asg12
S'vip@ieeevis.org'
p72
sa(dp73
g2
(lp74
Vjohnwenskovitch@gmail.com
p75
aVthomas.torsney-weir@univie.ac.at
p76
aVvahan.yoghourdjian@gmail.com
p77
aVvisweeksvchairs@gmail.com
p78
asg7
(lp79
S'jw87@vt.edu'
p80
aS'thomas.torsney-weir@univie.ac.at'
p81
aS'fumeng_yang@brown.edu'
p82
aS'tluciani21@gmail.com'
p83
aS'gerrits@isg.cs.uni-magdeburg.de'
p84
asg12
S'sv@ieeevis.org'
p85
sa(dp86
g2
(lp87
Vamit@sdsc.edu
p88
aVthomas.wischgoll@wright.edu
p89
asg7
(lp90
S'patchett2002@gmail.com'
p91
aS'thomas.wischgoll@wright.edu'
p92
asg12
S'scivis_contest@ieeevis.org'
p93
sa(dp94
g2
(lp95
Vhuamin@cse.ust.hk
p96
aVpl@llnl.gov
p97
aVremco@cs.tufts.edu
p98
asg7
(lp99
S'natalia.andrienko@iais.fraunhofer.de'
p100
aS'j.d.wood@city.ac.uk'
p101
aS'pl@llnl.gov'
p102
asg12
S'workshops@ieeevis.org'
p103
sa(dp104
g2
(lp105
sg7
(lp106
S'garth@cs.uni-kl.de'
p107
aS'chen.8028@osu.edu'
p108
asg12
S'scivis_posters@ieeevis.org'
p109
sa(dp110
g2
(lp111
Vgau.chau@gmail.com
p112
asg7
(lp113
S'gau.chau@gmail.com'
p114
asg12
S'program@ieeevis.org'
p115
sa(dp116
g2
(lp117
Vadam.perer@gmail.com
p118
aValex@sci.utah.edu
p119
aVkatie.osterdahl@kitware.com
p120
asg7
(lp121
S'behrisch@g.harvard.edu'
p122
aS'd.w.archambault@swansea.ac.uk'
p123
aS'katie.osterdahl@kitware.com'
p124
asg12
S'publicity@ieeevis.org'
p125
sa(dp126
g2
(lp127
Vhuamin@cse.ust.hk
p128
aVremco@cs.tufts.edu
p129
aVtobias.schreck@cgv.tugraz.at
p130
asg7
(lp131
S'remco@cs.tufts.edu'
p132
aS'huamin@cse.ust.hk'
p133
aS'tobias.schreck@cgv.tugraz.at'
p134
asg12
S'vast_papers@ieeevis.org'
p135
sa(dp136
g2
(lp137
Vhendrik@strobelt.com
p138
asg7
(lp139
S'hendrik@strobelt.com'
p140
aS'c.dunne@northeastern.edu'
p141
asg12
S'archive@ieeevis.org'
p142
sa(dp143
g2
(lp144
Vjames.ahrens@gmail.com
p145
asg7
(lp146
S'theisel@ovgu.de'
p147
asg12
S'general_chair@ieeevis.org'
p148
sa(dp149
g2
(lp150
Vangus.forbes@gmail.com
p151
aVmyjyby@gmail.com
p152
asg7
(lp153
S'myjyby@gmail.com'
p154
aS't.nagel@hs-mannheim.de'
p155
asg12
S'art@ieeevis.org'
p156
sa(dp157
g2
(lp158
Vmhaley@cs.sfu.ca
p159
asg7
(lp160
S'mhaley@sfu.ca'
p161
asg12
S'publications@ieeevis.org'
p162
sa(dp163
g2
(lp164
Vanab@lri.fr
p165
aVwoodring@lanl.gov
p166
aVzhange@engr.orst.edu
p167
asg7
(lp168
S'anab@lri.fr'
p169
aS'weiwei.cui@microsoft.com'
p170
aS'woodring@lanl.gov'
p171
asg12
S'community@ieeevis.org'
p172
sa(dp173
g2
(lp174
Vhank@uoregon.edu
p175
aVmarc.streit@jku.at
p176
aVtatiana.von.landesberger@gris.tu-darmstadt.de
p177
asg7
(lp178
S'rmacieje@asu.edu'
p179
aS'fanny@dgp.toronto.edu '
p180
aS'timo.ropinski@uni-ulm.de'
p181
aS'marc.streit@jku.at'
p182
asg12
S'doctoral_coll@ieeevis.org'
p183
sa(dp184
g2
(lp185
Vallen@sci.utah.edu
p186
aVbasole@gatech.edu
p187
aVjoern.kohlhammer@igd.fraunhofer.de
p188
aVkelly@tacc.utexas.edu
p189
asg7
(lp190
S'joern.kohlhammer@igd.fraunhofer.de'
p191
aS'alex@sci.utah.edu'
p192
aS'kelly@tacc.utexas.edu'
p193
aS'allen@sci.utah.edu'
p194
asg12
S'supporters@ieeevis.org'
p195
sa(dp196
g2
(lp197
Vggrinstein@cs.umass.edu
p198
aVkris.cook@pnnl.gov
p199
aVmark.a.whiting@pnnl.gov
p200
asg7
(lp201
S'kris.cook@pnnl.gov'
p202
aS'ggrinstein@cs.umass.edu'
p203
aS'mark.a.whiting@pnnl.gov'
p204
asg12
S'vast_challenge@ieeevis.org'
p205
sa(dp206
g2
(lp207
Vfranconeri@northwestern.edu
p208
aVpetra.isenberg@inria.fr
p209
aVtgdwyer@gmail.com
p210
asg7
(lp211
S'tgdwyer@gmail.com'
p212
aS'petra.isenberg@inria.fr'
p213
aS'franconeri@northwestern.edu'
p214
asg12
S'infovis_papers@ieeevis.org'
p215
sa(dp216
g2
(lp217
Vendert@gatech.edu
p218
aVmichael.sedlmair@univie.ac.at
p219
aVviola@cg.tuwien.ac.at
p220
asg7
(lp221
S'endert@gatech.edu'
p222
aS'danyelf@microsoft.com'
p223
aS'viola@cg.tuwien.ac.at'
p224
asg12
S'panels@ieeevis.org'
p225
sa(dp226
g2
(lp227
sg7
(lp228
S'tatiana.von.landesberger@gris.informatik.tu-darmstadt.de'
p229
aS'wdou1@uncc.edu'
p230
asg12
S'vast_posters@ieeevis.org'
p231
sa(dp232
g2
(lp233
Vpetra.isenberg@inria.fr
p234
aVtgdwyer@gmail.com
p235
asg7
(lp236
S'nath@microsoft.com'
p237
aS'miriah@cs.utah.edu'
p238
asg12
S'infovis_posters@ieeevis.org'
p239
sa(dp240
g2
(lp241
Vmichael.sedlmair@univie.ac.at
p242
asg7
(lp243
S'michael.sedlmair@univie.ac.at'
p244
asg12
S'beliv@ieeevis.org'
p245
sa(dp246
g2
(lp247
Vpetra@isg.cs.uni-magdeburg.de
p248
aVtheisel@ovgu.de
p249
asg7
(lp250
S'cyberpsychologist@me.com'
p251
aS'endert@gatech.edu '
p252
aS'wesley.willett@ucalgary.ca'
p253
aS'kirby@cs.utah.edu'
p254
aS'pascucci@sci.utah.edu'
p255
asg12
S'incoming_chairs@ieeevis.org'
p256
sa(dp257
g2
(lp258
Vlauvil@illinois.edu
p259
aVmariacv@gmail.com
p260
asg7
(lp261
S'lauvil@illinois.edu'
p262
aS'mariacv@gmail.com'
p263
asg12
S'finance@ieeevis.org'
p264
sa(dp265
g2
(lp266
Vrmacieje@asu.edu
p267
asg7
(lp268
S'bernhard.preim@ovgu.de'
p269
aS'hege@zib.de'
p270
aS'scheuermann@informatik.uni-leipzig.de'
p271
asg12
S'vice_chair@ieeevis.org'
p272
sa(dp273
g2
(lp274
Vgarth@cs.uni-kl.de
p275
aVjcbenne@sandia.gov
p276
asg7
(lp277
S'garth@cs.uni-kl.de'
p278
asg12
S'ldav@ieeevis.org'
p279
sa(dp280
g2
(lp281
Vabonmail@gmail.com
p282
aVfanny.chevalier@inria.fr
p283
aVmatkovic@vrvis.at
p284
asg7
(lp285
S'adam.perer@gmail.com'
p286
aS'rita.borgo@kcl.ac.uk'
p287
aS'aashish.chaudhary@kitware.com'
p288
asg12
S'meetups@ieeevis.org'
p289
sa.